; Function Attrs: mustprogress nofree norecurse nosync nounwind willreturn memory(write, argmem: readwrite, inaccessiblemem: none) uwtable
define hidden void @_ZN6hermes6Module9push_backEPNS_8FunctionE(ptr noundef nonnull align 8 dereferenceable(1033) %this, ptr noundef %F) local_unnamed_addr #7 align 2 {
entry:
  %FunctionList = getelementptr inbounds i8, ptr %this, i64 64
  %0 = load ptr, ptr %FunctionList, align 8
  %Next2.i.i.i.i.i.i = getelementptr inbounds i8, ptr %F, i64 8
  store ptr %FunctionList, ptr %Next2.i.i.i.i.i.i, align 8
  store ptr %0, ptr %F, align 8
  %Next2.i7.i.i.i.i.i = getelementptr inbounds i8, ptr %0, i64 8
  store ptr %F, ptr %Next2.i7.i.i.i.i.i, align 8
  store ptr %F, ptr %FunctionList, align 8
  ret void
}